; Function Attrs: mustprogress uwtable
define internal void @_ZL52InitDefaultsscc_info_OperatorSetIdProto_onnx_2eprotov() #3 personality ptr @__gxx_personality_v0 {
  tail call void @_ZN6google8protobuf8internal13VerifyVersionEiiPKc(i32 noundef 3012004, i32 noundef 3012000, ptr noundef nonnull @.str.10)
  store ptr null, ptr getelementptr inbounds nuw (i8, ptr @_ZN4onnx37_OperatorSetIdProto_default_instance_E, i64 8), align 8, !tbaa !4
  store ptr getelementptr inbounds nuw inrange(-16, 160) (i8, ptr @_ZTVN4onnx18OperatorSetIdProtoE, i64 16), ptr @_ZN4onnx37_OperatorSetIdProto_default_instance_E, align 8, !tbaa !9
  store i32 0, ptr getelementptr inbounds nuw (i8, ptr @_ZN4onnx37_OperatorSetIdProto_default_instance_E, i64 16), align 8
  store i32 0, ptr getelementptr inbounds nuw (i8, ptr @_ZN4onnx37_OperatorSetIdProto_default_instance_E, i64 20), align 4, !tbaa !41
  %1 = load atomic i32, ptr @scc_info_OperatorSetIdProto_onnx_2eproto acquire, align 8
  %.not.i.i.i.i = icmp eq i32 %1, 0
  br i1 %.not.i.i.i.i, label %_ZN4onnx18OperatorSetIdProtoC2Ev.exit, label %2, !prof !11

2:                                                ; preds = %0
  tail call void @_ZN6google8protobuf8internal11InitSCCImplEPNS1_11SCCInfoBaseE(ptr noundef nonnull @scc_info_OperatorSetIdProto_onnx_2eproto)
  br label %_ZN4onnx18OperatorSetIdProtoC2Ev.exit

_ZN4onnx18OperatorSetIdProtoC2Ev.exit:            ; preds = %0, %2
  store ptr @_ZN6google8protobuf8internal26fixed_address_empty_stringB5cxx11E, ptr getelementptr inbounds nuw (i8, ptr @_ZN4onnx37_OperatorSetIdProto_default_instance_E, i64 24), align 8, !tbaa !12
  store i64 0, ptr getelementptr inbounds nuw (i8, ptr @_ZN4onnx37_OperatorSetIdProto_default_instance_E, i64 32), align 8, !tbaa !42
  tail call void @_ZN6google8protobuf8internal13OnShutdownRunEPFvPKvES3_(ptr noundef nonnull @_ZN6google8protobuf8internal14DestroyMessageEPKv, ptr noundef nonnull @_ZN4onnx37_OperatorSetIdProto_default_instance_E)
  ret void
}